target datalayout = "e-m:e-p270:32:32-p271:32:32-p272:64:64-i64:64-i128:128-f80:128-n8:16:32:64-S128"
target triple = "x86_64-pc-linux-gnu"

%struct._Py_tss_t = type { i32, i32 }

; Function Attrs: nounwind uwtable
define dso_local void @PyThread_tss_delete(ptr noundef %0) #0 {
  %2 = alloca ptr, align 8
  store ptr %0, ptr %2, align 8, !tbaa !192
  %3 = load ptr, ptr %2, align 8, !tbaa !192
  %4 = getelementptr inbounds nuw %struct._Py_tss_t, ptr %3, i32 0, i32 0
  %5 = load i32, ptr %4, align 4, !tbaa !194
  %6 = icmp ne i32 %5, 0
  br i1 %6, label %8, label %7

7:                                                ; preds = %1
  br label %15

8:                                                ; preds = %1
  %9 = load ptr, ptr %2, align 8, !tbaa !192
  %10 = getelementptr inbounds nuw %struct._Py_tss_t, ptr %9, i32 0, i32 1
  %11 = load i32, ptr %10, align 4, !tbaa !195
  %12 = call i32 @pthread_key_delete(i32 noundef %11) #11
  %13 = load ptr, ptr %2, align 8, !tbaa !192
  %14 = getelementptr inbounds nuw %struct._Py_tss_t, ptr %13, i32 0, i32 0
  store i32 0, ptr %14, align 4, !tbaa !194
  br label %15

15:                                               ; preds = %8, %7
  ret void
}