; Function Attrs: nounwind uwtable
define dso_local void @PyThread_tss_delete(ptr noundef captures(none) %0) local_unnamed_addr #0 {
  %2 = load i32, ptr %0, align 4, !tbaa !186
  %.not = icmp eq i32 %2, 0
  br i1 %.not, label %7, label %3

3:                                                ; preds = %1
  %4 = getelementptr inbounds nuw i8, ptr %0, i64 4
  %5 = load i32, ptr %4, align 4, !tbaa !187
  %6 = tail call i32 @pthread_key_delete(i32 noundef %5) #13
  store i32 0, ptr %0, align 4, !tbaa !186
  br label %7

7:                                                ; preds = %1, %3
  ret void
}